target datalayout = "e-m:e-p270:32:32-p271:32:32-p272:64:64-i64:64-i128:128-f80:128-n8:16:32:64-S128"
target triple = "x86_64-pc-linux-gnu"

%struct._zend_phpdbg_globals = type { [11 x %struct._zend_array], %struct._zend_array, %struct._zend_array, ptr, ptr, %struct.phpdbg_frame_t, i32, ptr, %struct.phpdbg_lexer_data, ptr, %struct.sigaction, i32, i64, %struct.phpdbg_btree, %struct.phpdbg_btree, %struct._zend_array, %struct._zend_array, %struct._zend_array, %struct._zend_array, ptr, ptr, ptr, i8, ptr, ptr, ptr, i64, ptr, %struct._zval_struct, i32, i32, i8, i8, ptr, ptr, ptr, %struct._zend_array, ptr, ptr, ptr, [3 x %struct.anon.8], ptr, %struct.anon.9, i64, [2 x ptr], [3 x ptr], ptr, i8, ptr, ptr, [500 x i8], i32, %struct.phpdbg_signal_safe_mem, ptr, i64, ptr, i64 }
%struct.phpdbg_frame_t = type { i32, ptr, ptr }
%struct.phpdbg_lexer_data = type { i32, ptr, ptr, ptr, ptr, i32 }
%struct.sigaction = type { %union.anon.2, %struct.__sigset_t, i32, ptr }
%union.anon.2 = type { ptr }
%struct.__sigset_t = type { [16 x i64] }
%struct.phpdbg_btree = type { i64, i64, i8, ptr }
%struct._zval_struct = type { %union._zend_value, %union.anon.4, %union.anon.7 }
%union._zend_value = type { i64 }
%union.anon.4 = type { i32 }
%union.anon.7 = type { i32 }
%struct._zend_array = type { %struct._zend_refcounted_h, %union.anon.0, i32, %union.anon.1, i32, i32, i32, i32, i64, ptr }
%struct._zend_refcounted_h = type { i32, %union.anon }
%union.anon = type { i32 }
%union.anon.0 = type { i32 }
%union.anon.1 = type { ptr }
%struct.anon.8 = type { i32 }
%struct.anon.9 = type { i8, i32, i32, ptr, i32 }
%struct.phpdbg_signal_safe_mem = type { ptr, i8, ptr, ptr }

@phpdbg_globals = external global %struct._zend_phpdbg_globals, align 8

; Function Attrs: nounwind uwtable
define hidden void @phpdbg_init_lexer(ptr noundef %0, ptr noundef %1) #0 {
  %3 = alloca ptr, align 8
  %4 = alloca ptr, align 8
  store ptr %0, ptr %3, align 8, !tbaa !4
  store ptr %1, ptr %4, align 8, !tbaa !9
  %5 = load ptr, ptr %3, align 8, !tbaa !4
  store ptr %5, ptr getelementptr inbounds nuw (%struct._zend_phpdbg_globals, ptr @phpdbg_globals, i32 0, i32 9), align 8, !tbaa !11
  store i32 3, ptr getelementptr inbounds nuw (%struct.phpdbg_lexer_data, ptr getelementptr inbounds nuw (%struct._zend_phpdbg_globals, ptr @phpdbg_globals, i32 0, i32 8), i32 0, i32 5), align 8, !tbaa !40
  %6 = load ptr, ptr %4, align 8, !tbaa !9
  store ptr %6, ptr getelementptr inbounds nuw (%struct.phpdbg_lexer_data, ptr getelementptr inbounds nuw (%struct._zend_phpdbg_globals, ptr @phpdbg_globals, i32 0, i32 8), i32 0, i32 2), align 8, !tbaa !41
  store ptr %6, ptr getelementptr inbounds nuw (%struct.phpdbg_lexer_data, ptr getelementptr inbounds nuw (%struct._zend_phpdbg_globals, ptr @phpdbg_globals, i32 0, i32 8), i32 0, i32 1), align 8, !tbaa !42
  %7 = load ptr, ptr %4, align 8, !tbaa !9
  %8 = call i64 @strlen(ptr noundef %7) #6
  %9 = trunc i64 %8 to i32
  store i32 %9, ptr getelementptr inbounds nuw (%struct._zend_phpdbg_globals, ptr @phpdbg_globals, i32 0, i32 8), align 8, !tbaa !43
  ret void
}