; Function Attrs: mustprogress nofree nounwind willreturn memory(write, argmem: read, inaccessiblemem: none) uwtable
define hidden void @phpdbg_init_lexer(ptr noundef %0, ptr noundef %1) local_unnamed_addr #0 {
  store ptr %0, ptr getelementptr inbounds nuw (i8, ptr @phpdbg_globals, i64 832), align 8, !tbaa !4
  store i32 3, ptr getelementptr inbounds nuw (i8, ptr @phpdbg_globals, i64 824), align 8, !tbaa !38
  store ptr %1, ptr getelementptr inbounds nuw (i8, ptr @phpdbg_globals, i64 800), align 8, !tbaa !39
  store ptr %1, ptr getelementptr inbounds nuw (i8, ptr @phpdbg_globals, i64 792), align 8, !tbaa !40
  %3 = tail call i64 @strlen(ptr noundef nonnull dereferenceable(1) %1) #6
  %4 = trunc i64 %3 to i32
  store i32 %4, ptr getelementptr inbounds nuw (i8, ptr @phpdbg_globals, i64 784), align 8, !tbaa !41
  ret void
}